target datalayout = "e-m:e-p270:32:32-p271:32:32-p272:64:64-i64:64-i128:128-f80:128-n8:16:32:64-S128"
target triple = "x86_64-pc-linux-gnu"

%struct.ForEachState = type { ptr, i32 }
%struct.List = type { i32, i32, i32, ptr, [0 x %union.ListCell] }
%union.ListCell = type { ptr }
%struct.TargetEntry = type { %struct.Expr, ptr, i16, ptr, i32, i32, i16, i8 }
%struct.Expr = type { i32 }

; Function Attrs: nounwind uwtable
define dso_local void @resolveTargetListUnknowns(ptr noundef %0, ptr noundef %1) #0 {
  %3 = alloca ptr, align 8
  %4 = alloca ptr, align 8
  %5 = alloca ptr, align 8
  %6 = alloca %struct.ForEachState, align 8
  %7 = alloca ptr, align 8
  %8 = alloca i32, align 4
  store ptr %0, ptr %3, align 8
  store ptr %1, ptr %4, align 8
  call void @llvm.lifetime.start.p0(i64 8, ptr %5) #8
  call void @llvm.lifetime.start.p0(i64 16, ptr %6) #8
  %9 = getelementptr inbounds nuw %struct.ForEachState, ptr %6, i32 0, i32 0
  %10 = load ptr, ptr %4, align 8
  store ptr %10, ptr %9, align 8
  %11 = getelementptr inbounds nuw %struct.ForEachState, ptr %6, i32 0, i32 1
  store i32 0, ptr %11, align 8
  %12 = getelementptr i8, ptr %6, i64 12
  call void @llvm.memset.p0.i64(ptr align 4 %12, i8 0, i64 4, i1 false)
  br label %13

13:                                               ; preds = %58, %2
  %14 = getelementptr inbounds nuw %struct.ForEachState, ptr %6, i32 0, i32 0
  %15 = load ptr, ptr %14, align 8
  %16 = icmp ne ptr %15, null
  br i1 %16, label %17, label %34

17:                                               ; preds = %13
  %18 = getelementptr inbounds nuw %struct.ForEachState, ptr %6, i32 0, i32 1
  %19 = load i32, ptr %18, align 8
  %20 = getelementptr inbounds nuw %struct.ForEachState, ptr %6, i32 0, i32 0
  %21 = load ptr, ptr %20, align 8
  %22 = getelementptr inbounds nuw %struct.List, ptr %21, i32 0, i32 1
  %23 = load i32, ptr %22, align 4
  %24 = icmp slt i32 %19, %23
  br i1 %24, label %25, label %34

25:                                               ; preds = %17
  %26 = getelementptr inbounds nuw %struct.ForEachState, ptr %6, i32 0, i32 0
  %27 = load ptr, ptr %26, align 8
  %28 = getelementptr inbounds nuw %struct.List, ptr %27, i32 0, i32 3
  %29 = load ptr, ptr %28, align 8
  %30 = getelementptr inbounds nuw %struct.ForEachState, ptr %6, i32 0, i32 1
  %31 = load i32, ptr %30, align 8
  %32 = sext i32 %31 to i64
  %33 = getelementptr inbounds %union.ListCell, ptr %29, i64 %32
  store ptr %33, ptr %5, align 8
  br label %35

34:                                               ; preds = %17, %13
  store ptr null, ptr %5, align 8
  br label %35

35:                                               ; preds = %34, %25
  %36 = phi i32 [ 1, %25 ], [ 0, %34 ]
  %37 = icmp ne i32 %36, 0
  br i1 %37, label %39, label %38

38:                                               ; preds = %35
  call void @llvm.lifetime.end.p0(i64 16, ptr %6) #8
  br label %62

39:                                               ; preds = %35
  call void @llvm.lifetime.start.p0(i64 8, ptr %7) #8
  %40 = load ptr, ptr %5, align 8
  %41 = load ptr, ptr %40, align 8
  store ptr %41, ptr %7, align 8
  call void @llvm.lifetime.start.p0(i64 4, ptr %8) #8
  %42 = load ptr, ptr %7, align 8
  %43 = getelementptr inbounds nuw %struct.TargetEntry, ptr %42, i32 0, i32 1
  %44 = load ptr, ptr %43, align 8
  %45 = call i32 @exprType(ptr noundef %44)
  store i32 %45, ptr %8, align 4
  %46 = load i32, ptr %8, align 4
  %47 = icmp eq i32 %46, 705
  br i1 %47, label %48, label %57

48:                                               ; preds = %39
  %49 = load ptr, ptr %3, align 8
  %50 = load ptr, ptr %7, align 8
  %51 = getelementptr inbounds nuw %struct.TargetEntry, ptr %50, i32 0, i32 1
  %52 = load ptr, ptr %51, align 8
  %53 = load i32, ptr %8, align 4
  %54 = call ptr @coerce_type(ptr noundef %49, ptr noundef %52, i32 noundef %53, i32 noundef 25, i32 noundef -1, i32 noundef 0, i32 noundef 2, i32 noundef -1)
  %55 = load ptr, ptr %7, align 8
  %56 = getelementptr inbounds nuw %struct.TargetEntry, ptr %55, i32 0, i32 1
  store ptr %54, ptr %56, align 8
  br label %57

57:                                               ; preds = %48, %39
  call void @llvm.lifetime.end.p0(i64 4, ptr %8) #8
  call void @llvm.lifetime.end.p0(i64 8, ptr %7) #8
  br label %58

58:                                               ; preds = %57
  %59 = getelementptr inbounds nuw %struct.ForEachState, ptr %6, i32 0, i32 1
  %60 = load i32, ptr %59, align 8
  %61 = add i32 %60, 1
  store i32 %61, ptr %59, align 8
  br label %13, !llvm.loop !9

62:                                               ; preds = %38
  call void @llvm.lifetime.end.p0(i64 8, ptr %5) #8
  ret void
}