; Function Attrs: nounwind uwtable
define dso_local void @resolveTargetListUnknowns(ptr noundef %0, ptr noundef readonly captures(address_is_null) %1) local_unnamed_addr #0 {
  %3 = getelementptr inbounds nuw i8, ptr %1, i64 4
  %.not = icmp eq ptr %1, null
  br i1 %.not, label %._crit_edge, label %.lr.ph

.lr.ph:                                           ; preds = %2
  %4 = getelementptr inbounds nuw i8, ptr %1, i64 16
  %5 = load i32, ptr %3, align 4
  %6 = icmp sgt i32 %5, 0
  br i1 %6, label %.lr.ph19, label %._crit_edge

._crit_edge:                                      ; preds = %17, %.lr.ph, %2
  ret void

.lr.ph19:                                         ; preds = %.lr.ph, %17
  %indvars.iv = phi i64 [ %indvars.iv.next, %17 ], [ 0, %.lr.ph ]
  %7 = load ptr, ptr %4, align 8
  %8 = getelementptr inbounds nuw %union.ListCell, ptr %7, i64 %indvars.iv
  %9 = load ptr, ptr %8, align 8
  %10 = getelementptr inbounds nuw i8, ptr %9, i64 8
  %11 = load ptr, ptr %10, align 8
  %12 = tail call i32 @exprType(ptr noundef %11) #8
  %13 = icmp eq i32 %12, 705
  br i1 %13, label %14, label %17

14:                                               ; preds = %.lr.ph19
  %15 = load ptr, ptr %10, align 8
  %16 = tail call ptr @coerce_type(ptr noundef %0, ptr noundef %15, i32 noundef 705, i32 noundef 25, i32 noundef -1, i32 noundef 0, i32 noundef 2, i32 noundef -1) #8
  store ptr %16, ptr %10, align 8
  br label %17

17:                                               ; preds = %14, %.lr.ph19
  %indvars.iv.next = add nuw nsw i64 %indvars.iv, 1
  %18 = load i32, ptr %3, align 4
  %19 = sext i32 %18 to i64
  %20 = icmp slt i64 %indvars.iv.next, %19
  br i1 %20, label %.lr.ph19, label %._crit_edge
}